target datalayout = "e-m:e-p270:32:32-p271:32:32-p272:64:64-i64:64-i128:128-f80:128-n8:16:32:64-S128"
target triple = "x86_64-pc-linux-gnu"

@luaB_collectgarbage.opts = internal constant [10 x ptr] [ptr @.str.27, ptr @.str.28, ptr @.str.29, ptr @.str.30, ptr @.str.31, ptr @.str.32, ptr @.str.33, ptr @.str.34, ptr @.str.35, ptr null], align 16
@.str.29 = private unnamed_addr constant [8 x i8] c"collect\00", align 1
@.str.33 = private unnamed_addr constant [13 x i8] c"generational\00", align 1
@.str.34 = private unnamed_addr constant [12 x i8] c"incremental\00", align 1
@luaB_collectgarbage.optsnum = internal constant [9 x i8] c"\00\01\02\03\05\06\07\08\09", align 1
@luaB_collectgarbage.params = internal constant [7 x ptr] [ptr @.str.36, ptr @.str.37, ptr @.str.38, ptr @.str.39, ptr @.str.40, ptr @.str.41, ptr null], align 16
@luaB_collectgarbage.pnum = internal constant [6 x i8] c"\00\01\02\03\04\05", align 1

; Function Attrs: nounwind uwtable
define internal i32 @pushmode(ptr noundef %0, i32 noundef %1) #0 {
  %3 = alloca ptr, align 8
  %4 = alloca i32, align 4
  store ptr %0, ptr %3, align 8, !tbaa !4
  store i32 %1, ptr %4, align 4, !tbaa !10
  %5 = load i32, ptr %4, align 4, !tbaa !10
  %6 = icmp eq i32 %5, -1
  br i1 %6, label %7, label %9

7:                                                ; preds = %2
  %8 = load ptr, ptr %3, align 8, !tbaa !4
  call void @lua_pushnil(ptr noundef %8)
  br label %15

9:                                                ; preds = %2
  %10 = load ptr, ptr %3, align 8, !tbaa !4
  %11 = load i32, ptr %4, align 4, !tbaa !10
  %12 = icmp eq i32 %11, 8
  %13 = select i1 %12, ptr @.str.34, ptr @.str.33
  %14 = call ptr @lua_pushstring(ptr noundef %10, ptr noundef %13)
  br label %15

15:                                               ; preds = %9, %7
  ret i32 1
}

; Function Attrs: nounwind uwtable
define internal i32 @luaB_collectgarbage(ptr noundef %0) #0 {
  %2 = alloca i32, align 4
  %3 = alloca ptr, align 8
  %4 = alloca i32, align 4
  %5 = alloca i32, align 4
  %6 = alloca i32, align 4
  %7 = alloca i32, align 4
  %8 = alloca i64, align 8
  %9 = alloca i32, align 4
  %10 = alloca i32, align 4
  %11 = alloca i32, align 4
  %12 = alloca i64, align 8
  %13 = alloca i32, align 4
  store ptr %0, ptr %3, align 8, !tbaa !4
  call void @llvm.lifetime.start.p0(i64 4, ptr %4) #6
  %14 = load ptr, ptr %3, align 8, !tbaa !4
  %15 = call i32 @luaL_checkoption(ptr noundef %14, i32 noundef 1, ptr noundef @.str.29, ptr noundef @luaB_collectgarbage.opts)
  %16 = sext i32 %15 to i64
  %17 = getelementptr inbounds [9 x i8], ptr @luaB_collectgarbage.optsnum, i64 0, i64 %16
  %18 = load i8, ptr %17, align 1, !tbaa !9
  %19 = sext i8 %18 to i32
  store i32 %19, ptr %4, align 4, !tbaa !10
  %20 = load i32, ptr %4, align 4, !tbaa !10
  switch i32 %20, label %96 [
    i32 3, label %21
    i32 5, label %40
    i32 6, label %55
    i32 7, label %67
    i32 8, label %73
    i32 9, label %79
  ]

21:                                               ; preds = %1
  call void @llvm.lifetime.start.p0(i64 4, ptr %5) #6
  %22 = load ptr, ptr %3, align 8, !tbaa !4
  %23 = load i32, ptr %4, align 4, !tbaa !10
  %24 = call i32 (ptr, i32, ...) @lua_gc(ptr noundef %22, i32 noundef %23)
  store i32 %24, ptr %5, align 4, !tbaa !10
  call void @llvm.lifetime.start.p0(i64 4, ptr %6) #6
  %25 = load ptr, ptr %3, align 8, !tbaa !4
  %26 = call i32 (ptr, i32, ...) @lua_gc(ptr noundef %25, i32 noundef 4)
  store i32 %26, ptr %6, align 4, !tbaa !10
  %27 = load i32, ptr %5, align 4, !tbaa !10
  %28 = icmp eq i32 %27, -1
  br i1 %28, label %29, label %30

29:                                               ; preds = %21
  store i32 2, ptr %7, align 4
  br label %38

30:                                               ; preds = %21
  %31 = load ptr, ptr %3, align 8, !tbaa !4
  %32 = load i32, ptr %5, align 4, !tbaa !10
  %33 = sitofp i32 %32 to double
  %34 = load i32, ptr %6, align 4, !tbaa !10
  %35 = sitofp i32 %34 to double
  %36 = fdiv double %35, 1.024000e+03
  %37 = fadd double %33, %36
  call void @lua_pushnumber(ptr noundef %31, double noundef %37)
  store i32 1, ptr %2, align 4
  store i32 1, ptr %7, align 4
  br label %38

38:                                               ; preds = %30, %29
  call void @llvm.lifetime.end.p0(i64 4, ptr %6) #6
  call void @llvm.lifetime.end.p0(i64 4, ptr %5) #6
  %39 = load i32, ptr %7, align 4
  switch i32 %39, label %111 [
    i32 2, label %109
  ]

40:                                               ; preds = %1
  call void @llvm.lifetime.start.p0(i64 8, ptr %8) #6
  %41 = load ptr, ptr %3, align 8, !tbaa !4
  %42 = call i64 @luaL_optinteger(ptr noundef %41, i32 noundef 2, i64 noundef 0)
  store i64 %42, ptr %8, align 8, !tbaa !12
  call void @llvm.lifetime.start.p0(i64 4, ptr %9) #6
  %43 = load ptr, ptr %3, align 8, !tbaa !4
  %44 = load i32, ptr %4, align 4, !tbaa !10
  %45 = load i64, ptr %8, align 8, !tbaa !12
  %46 = call i32 (ptr, i32, ...) @lua_gc(ptr noundef %43, i32 noundef %44, i64 noundef %45)
  store i32 %46, ptr %9, align 4, !tbaa !10
  %47 = load i32, ptr %9, align 4, !tbaa !10
  %48 = icmp eq i32 %47, -1
  br i1 %48, label %49, label %50

49:                                               ; preds = %40
  store i32 2, ptr %7, align 4
  br label %53

50:                                               ; preds = %40
  %51 = load ptr, ptr %3, align 8, !tbaa !4
  %52 = load i32, ptr %9, align 4, !tbaa !10
  call void @lua_pushboolean(ptr noundef %51, i32 noundef %52)
  store i32 1, ptr %2, align 4
  store i32 1, ptr %7, align 4
  br label %53

53:                                               ; preds = %50, %49
  call void @llvm.lifetime.end.p0(i64 4, ptr %9) #6
  call void @llvm.lifetime.end.p0(i64 8, ptr %8) #6
  %54 = load i32, ptr %7, align 4
  switch i32 %54, label %111 [
    i32 2, label %109
  ]

55:                                               ; preds = %1
  call void @llvm.lifetime.start.p0(i64 4, ptr %10) #6
  %56 = load ptr, ptr %3, align 8, !tbaa !4
  %57 = load i32, ptr %4, align 4, !tbaa !10
  %58 = call i32 (ptr, i32, ...) @lua_gc(ptr noundef %56, i32 noundef %57)
  store i32 %58, ptr %10, align 4, !tbaa !10
  %59 = load i32, ptr %10, align 4, !tbaa !10
  %60 = icmp eq i32 %59, -1
  br i1 %60, label %61, label %62

61:                                               ; preds = %55
  store i32 2, ptr %7, align 4
  br label %65

62:                                               ; preds = %55
  %63 = load ptr, ptr %3, align 8, !tbaa !4
  %64 = load i32, ptr %10, align 4, !tbaa !10
  call void @lua_pushboolean(ptr noundef %63, i32 noundef %64)
  store i32 1, ptr %2, align 4
  store i32 1, ptr %7, align 4
  br label %65

65:                                               ; preds = %62, %61
  call void @llvm.lifetime.end.p0(i64 4, ptr %10) #6
  %66 = load i32, ptr %7, align 4
  switch i32 %66, label %111 [
    i32 2, label %109
  ]

67:                                               ; preds = %1
  %68 = load ptr, ptr %3, align 8, !tbaa !4
  %69 = load ptr, ptr %3, align 8, !tbaa !4
  %70 = load i32, ptr %4, align 4, !tbaa !10
  %71 = call i32 (ptr, i32, ...) @lua_gc(ptr noundef %69, i32 noundef %70)
  %72 = call i32 @pushmode(ptr noundef %68, i32 noundef %71)
  store i32 %72, ptr %2, align 4
  store i32 1, ptr %7, align 4
  br label %111

73:                                               ; preds = %1
  %74 = load ptr, ptr %3, align 8, !tbaa !4
  %75 = load ptr, ptr %3, align 8, !tbaa !4
  %76 = load i32, ptr %4, align 4, !tbaa !10
  %77 = call i32 (ptr, i32, ...) @lua_gc(ptr noundef %75, i32 noundef %76)
  %78 = call i32 @pushmode(ptr noundef %74, i32 noundef %77)
  store i32 %78, ptr %2, align 4
  store i32 1, ptr %7, align 4
  br label %111

79:                                               ; preds = %1
  call void @llvm.lifetime.start.p0(i64 4, ptr %11) #6
  %80 = load ptr, ptr %3, align 8, !tbaa !4
  %81 = call i32 @luaL_checkoption(ptr noundef %80, i32 noundef 2, ptr noundef null, ptr noundef @luaB_collectgarbage.params)
  %82 = sext i32 %81 to i64
  %83 = getelementptr inbounds [6 x i8], ptr @luaB_collectgarbage.pnum, i64 0, i64 %82
  %84 = load i8, ptr %83, align 1, !tbaa !9
  %85 = sext i8 %84 to i32
  store i32 %85, ptr %11, align 4, !tbaa !10
  call void @llvm.lifetime.start.p0(i64 8, ptr %12) #6
  %86 = load ptr, ptr %3, align 8, !tbaa !4
  %87 = call i64 @luaL_optinteger(ptr noundef %86, i32 noundef 3, i64 noundef -1)
  store i64 %87, ptr %12, align 8, !tbaa !12
  %88 = load ptr, ptr %3, align 8, !tbaa !4
  %89 = load ptr, ptr %3, align 8, !tbaa !4
  %90 = load i32, ptr %4, align 4, !tbaa !10
  %91 = load i32, ptr %11, align 4, !tbaa !10
  %92 = load i64, ptr %12, align 8, !tbaa !12
  %93 = trunc i64 %92 to i32
  %94 = call i32 (ptr, i32, ...) @lua_gc(ptr noundef %89, i32 noundef %90, i32 noundef %91, i32 noundef %93)
  %95 = sext i32 %94 to i64
  call void @lua_pushinteger(ptr noundef %88, i64 noundef %95)
  store i32 1, ptr %2, align 4
  store i32 1, ptr %7, align 4
  call void @llvm.lifetime.end.p0(i64 8, ptr %12) #6
  call void @llvm.lifetime.end.p0(i64 4, ptr %11) #6
  br label %111

96:                                               ; preds = %1
  call void @llvm.lifetime.start.p0(i64 4, ptr %13) #6
  %97 = load ptr, ptr %3, align 8, !tbaa !4
  %98 = load i32, ptr %4, align 4, !tbaa !10
  %99 = call i32 (ptr, i32, ...) @lua_gc(ptr noundef %97, i32 noundef %98)
  store i32 %99, ptr %13, align 4, !tbaa !10
  %100 = load i32, ptr %13, align 4, !tbaa !10
  %101 = icmp eq i32 %100, -1
  br i1 %101, label %102, label %103

102:                                              ; preds = %96
  store i32 2, ptr %7, align 4
  br label %107

103:                                              ; preds = %96
  %104 = load ptr, ptr %3, align 8, !tbaa !4
  %105 = load i32, ptr %13, align 4, !tbaa !10
  %106 = sext i32 %105 to i64
  call void @lua_pushinteger(ptr noundef %104, i64 noundef %106)
  store i32 1, ptr %2, align 4
  store i32 1, ptr %7, align 4
  br label %107

107:                                              ; preds = %103, %102
  call void @llvm.lifetime.end.p0(i64 4, ptr %13) #6
  %108 = load i32, ptr %7, align 4
  switch i32 %108, label %111 [
    i32 2, label %109
  ]

109:                                              ; preds = %107, %65, %53, %38
  %110 = load ptr, ptr %3, align 8, !tbaa !4
  call void @lua_pushnil(ptr noundef %110)
  store i32 1, ptr %2, align 4
  store i32 1, ptr %7, align 4
  br label %111

111:                                              ; preds = %109, %107, %79, %73, %67, %65, %53, %38
  call void @llvm.lifetime.end.p0(i64 4, ptr %4) #6
  %112 = load i32, ptr %2, align 4
  ret i32 %112
}