; Function Attrs: nounwind uwtable
define internal noundef i32 @luaB_collectgarbage(ptr noundef %0) #0 {
  %2 = tail call i32 @luaL_checkoption(ptr noundef %0, i32 noundef 1, ptr noundef nonnull @.str.29, ptr noundef nonnull @luaB_collectgarbage.opts) #9
  %3 = sext i32 %2 to i64
  %4 = getelementptr inbounds [9 x i8], ptr @luaB_collectgarbage.optsnum, i64 0, i64 %3
  %5 = load i8, ptr %4, align 1, !tbaa !5
  switch i8 %5, label %50 [
    i8 3, label %6
    i8 5, label %15
    i8 6, label %20
    i8 7, label %24
    i8 8, label %32
    i8 9, label %40
  ]

6:                                                ; preds = %1
  %7 = tail call i32 (ptr, i32, ...) @lua_gc(ptr noundef %0, i32 noundef 3) #9
  %8 = tail call i32 (ptr, i32, ...) @lua_gc(ptr noundef %0, i32 noundef 4) #9
  %9 = icmp eq i32 %7, -1
  br i1 %9, label %.critedge, label %10

10:                                               ; preds = %6
  %11 = sitofp i32 %7 to double
  %12 = sitofp i32 %8 to double
  %13 = fmul double %12, 0x3F50000000000000
  %14 = fadd double %13, %11
  tail call void @lua_pushnumber(ptr noundef %0, double noundef %14) #9
  br label %pushmode.exit

15:                                               ; preds = %1
  %16 = tail call i64 @luaL_optinteger(ptr noundef %0, i32 noundef 2, i64 noundef 0) #9
  %17 = tail call i32 (ptr, i32, ...) @lua_gc(ptr noundef %0, i32 noundef 5, i64 noundef %16) #9
  %18 = icmp eq i32 %17, -1
  br i1 %18, label %.critedge, label %19

19:                                               ; preds = %15
  tail call void @lua_pushboolean(ptr noundef %0, i32 noundef %17) #9
  br label %pushmode.exit

20:                                               ; preds = %1
  %21 = tail call i32 (ptr, i32, ...) @lua_gc(ptr noundef %0, i32 noundef 6) #9
  %22 = icmp eq i32 %21, -1
  br i1 %22, label %.critedge, label %23

23:                                               ; preds = %20
  tail call void @lua_pushboolean(ptr noundef %0, i32 noundef %21) #9
  br label %pushmode.exit

24:                                               ; preds = %1
  %25 = tail call i32 (ptr, i32, ...) @lua_gc(ptr noundef %0, i32 noundef 7) #9
  %26 = icmp eq i32 %25, -1
  br i1 %26, label %27, label %28

27:                                               ; preds = %24
  tail call void @lua_pushnil(ptr noundef %0) #9
  br label %pushmode.exit

28:                                               ; preds = %24
  %29 = icmp eq i32 %25, 8
  %30 = select i1 %29, ptr @.str.34, ptr @.str.33
  %31 = tail call ptr @lua_pushstring(ptr noundef %0, ptr noundef nonnull %30) #9
  br label %pushmode.exit

32:                                               ; preds = %1
  %33 = tail call i32 (ptr, i32, ...) @lua_gc(ptr noundef %0, i32 noundef 8) #9
  %34 = icmp eq i32 %33, -1
  br i1 %34, label %35, label %36

35:                                               ; preds = %32
  tail call void @lua_pushnil(ptr noundef %0) #9
  br label %pushmode.exit

36:                                               ; preds = %32
  %37 = icmp eq i32 %33, 8
  %38 = select i1 %37, ptr @.str.34, ptr @.str.33
  %39 = tail call ptr @lua_pushstring(ptr noundef %0, ptr noundef nonnull %38) #9
  br label %pushmode.exit

40:                                               ; preds = %1
  %41 = tail call i32 @luaL_checkoption(ptr noundef %0, i32 noundef 2, ptr noundef null, ptr noundef nonnull @luaB_collectgarbage.params) #9
  %42 = sext i32 %41 to i64
  %43 = getelementptr inbounds [6 x i8], ptr @luaB_collectgarbage.pnum, i64 0, i64 %42
  %44 = load i8, ptr %43, align 1, !tbaa !5
  %45 = sext i8 %44 to i32
  %46 = tail call i64 @luaL_optinteger(ptr noundef %0, i32 noundef 3, i64 noundef -1) #9
  %47 = trunc i64 %46 to i32
  %48 = tail call i32 (ptr, i32, ...) @lua_gc(ptr noundef %0, i32 noundef 9, i32 noundef %45, i32 noundef %47) #9
  %49 = sext i32 %48 to i64
  tail call void @lua_pushinteger(ptr noundef %0, i64 noundef %49) #9
  br label %pushmode.exit

50:                                               ; preds = %1
  %51 = sext i8 %5 to i32
  %52 = tail call i32 (ptr, i32, ...) @lua_gc(ptr noundef %0, i32 noundef %51) #9
  %53 = icmp eq i32 %52, -1
  br i1 %53, label %.critedge, label %54

54:                                               ; preds = %50
  %55 = sext i32 %52 to i64
  tail call void @lua_pushinteger(ptr noundef %0, i64 noundef %55) #9
  br label %pushmode.exit

.critedge:                                        ; preds = %50, %20, %15, %6
  tail call void @lua_pushnil(ptr noundef %0) #9
  br label %pushmode.exit

pushmode.exit:                                    ; preds = %36, %35, %28, %27, %54, %23, %19, %10, %.critedge, %40
  ret i32 1
}